(dp0
S'\t'
p1
I0
sS'\n'
p2
I1
sS'!'
p3
I3
sS' '
p4
I2
sS'#'
p5
I5
sS'"'
p6
I4
sS'%'
p7
I7
sS'$'
p8
I6
sS"'"
p9
I9
sS'&'
p10
I8
sS')'
p11
I11
sS'('
p12
I10
sS'*'
p13
I12
sS'-'
p14
I14
sS','
p15
I13
sS'/'
p16
I16
sS'.'
p17
I15
sS'1'
p18
I18
sS'0'
p19
I17
sS'3'
p20
I20
sS'2'
p21
I19
sS'5'
p22
I22
sS'4'
p23
I21
sS'7'
p24
I24
sS'6'
p25
I23
sS'9'
p26
I26
sS'8'
p27
I25
sS';'
p28
I28
sS':'
p29
I27
sS'?'
p30
I29
sS'['
p31
I30
sS']'
p32
I31
sS'a'
p33
I32
sS'c'
p34
I34
sS'b'
p35
I33
sS'e'
p36
I36
sS'd'
p37
I35
sS'g'
p38
I38
sS'f'
p39
I37
sS'i'
p40
I40
sS'h'
p41
I39
sS'k'
p42
I42
sS'j'
p43
I41
sS'm'
p44
I44
sS'l'
p45
I43
sS'o'
p46
I46
sS'n'
p47
I45
sS'q'
p48
I48
sS'p'
p49
I47
sS's'
p50
I50
sS'r'
p51
I49
sS'u'
p52
I52
sS't'
p53
I51
sS'w'
p54
I54
sS'v'
p55
I53
sS'y'
p56
I56
sS'x'
p57
I55
sS'z'
p58
I57
s.