(lp0
(lp1
I15
aI2
aI4
aI54
aI36
aI2
aI39
aI36
aI32
aI49
aI2
aI51
aI39
aI36
aI56
aI9
aI53
aI36
aI2
aI35
aI36
aI34
aI40
aI35
aI36
aI35
aI2
aI51
aI46
aI2
aI38
aI36
aI51
aI2
aI39
aI36
aI32
aI53
aI56
aI2
aI54
aI40
aI51
aI39
aI2
aI52
aI50
aI15
aI4
aI2
aI4
aI41
aI36
aI50
aI52
aI50
aI2
aI34
aI39
aI49
aI40
aI50
aI51
aI3
aI4
aI2
aI50
aI32
aI40
aI35
aI2
aI32
aI2
aI49
aI36
aI51
aI40
aI49
aI36
aI35
aI2
aI32
aI40
aI49
aI43
aI40
aI45
aI36
aI2
aI47
aI40
aI43
aI46
aI51
aI2
aI54
aI39
aI46
aI9
aI35
aa(lp2
I51
aI39
aI46
aI52
aI51
aI2
aI40
aI45
aI34
aI40
aI35
aI36
aI45
aI51
aI15
aI2
aI43
aI40
aI48
aI52
aI46
aI49
aI2
aI32
aI45
aI35
aI2
aI33
aI36
aI36
aI49
aI2
aI50
aI32
aI43
aI36
aI50
aI13
aI2
aI54
aI39
aI40
aI34
aI39
aI2
aI39
aI32
aI35
aI2
aI33
aI36
aI36
aI45
aI2
aI39
aI32
aI43
aI51
aI36
aI35
aI2
aI35
aI52
aI49
aI40
aI45
aI38
aI2
aI51
aI39
aI36
aI2
aI49
aI40
aI46
aI51
aI13
aI2
aI54
aI36
aI49
aI36
aI2
aI32
aI43
aI50
aI46
aI2
aI49
aI36
aI45
aI36
aI54
aI36
aI35
aI15
aI2
aI46
aI45
aI2
aa(lp3
I32
aI45
aI36
aI2
aI32
aI51
aI51
aI46
aI49
aI45
aI36
aI56
aI2
aI46
aI45
aI2
aI48
aI52
aI36
aI50
aI51
aI40
aI46
aI45
aI50
aI2
aI46
aI37
aI2
aI33
aI32
aI50
aI40
aI34
aI2
aI43
aI32
aI54
aI15
aI2
aI33
aI52
aI51
aI2
aI40
aI45
aI2
aI51
aI49
aI52
aI51
aI39
aI2
aI40
aI51
aI2
aI45
aI36
aI53
aI36
aI49
aI2
aI46
aI34
aI34
aI52
aI49
aI49
aI36
aI35
aI2
aI51
aI46
aI2
aI44
aI36
aI2
aI51
aI39
aI32
aI51
aI2
aI46
aI50
aI34
aI32
aI49
aI2
aI54
aI32
aI50
aI2
aI36
aI40
aI51
aI39
aI36
aI49
aI2
aI40
aa(lp4
I43
aI43
aI2
aI4
aI32
aI2
aI50
aI51
aI56
aI43
aI40
aI50
aI39
aI2
aI47
aI46
aI51
aI4
aI2
aI40
aI45
aI50
aI51
aI36
aI32
aI35
aI2
aI46
aI37
aI2
aI32
aI2
aI54
aI32
aI40
aI51
aI50
aI43
aI40
aI45
aI36
aI15
aI2
aI33
aI36
aI50
aI40
aI35
aI36
aI2
aI39
aI40
aI44
aI2
aI46
aI45
aI2
aI32
aI2
aI50
aI44
aI32
aI43
aI43
aI2
aI47
aI32
aI51
aI40
aI46
aI2
aI51
aI32
aI33
aI43
aI36
aI2
aI54
aI32
aI50
aI2
aI32
aI2
aI43
aI46
aI45
aI38
aI2
aI38
aI40
aI45
aI14
aI32
aI45
aI35
aI14
aI51
aI46
aI45
aI40
aa(lp5
I45
aI2
aI36
aI53
aI36
aI45
aI2
aI51
aI46
aI50
aI50
aI40
aI45
aI38
aI2
aI44
aI56
aI2
aI33
aI32
aI38
aI2
aI40
aI45
aI51
aI46
aI2
aI40
aI51
aI15
aI2
aI51
aI39
aI36
aI2
aI38
aI32
aI44
aI36
aI2
aI54
aI32
aI50
aI2
aI52
aI47
aI15
aI2
aI51
aI39
aI36
aI56
aI2
aI39
aI32
aI35
aI2
aI44
aI36
aI15
aI1
aI1
aI51
aI39
aI36
aI2
aI34
aI43
aI36
aI49
aI42
aI2
aI54
aI32
aI50
aI2
aI50
aI51
aI40
aI43
aI43
aI2
aI50
aI44
aI40
aI43
aI40
aI45
aI38
aI15
aI2
aI51
aI39
aI40
aI50
aI2
aI51
aI36
aI43
aI36
aa(lp6
I2
aI54
aI32
aI56
aI2
aI46
aI52
aI51
aI2
aI46
aI37
aI2
aI40
aI51
aI15
aI4
aI2
aI46
aI49
aI13
aI2
aI4
aI40
aI45
aI2
aI51
aI36
aI45
aI2
aI56
aI36
aI32
aI49
aI50
aI13
aI2
aI35
aI46
aI54
aI45
aI51
aI46
aI54
aI45
aI2
aI43
aI46
aI52
aI40
aI50
aI53
aI40
aI43
aI43
aI36
aI2
aI54
aI40
aI43
aI43
aI2
aI33
aI36
aI2
aI32
aI50
aI2
aI33
aI43
aI32
aI34
aI42
aI2
aI32
aI50
aI2
aI39
aI32
aI49
aI43
aI36
aI44
aI15
aI4
aI1
aI54
aI39
aI32
aI51
aI2
aI40
aI50
aI2
aI32
aI47
aI47
aI32
aI49
aI36
aI45
aa(lp7
I4
aI2
aI39
aI36
aI2
aI50
aI32
aI40
aI35
aI13
aI2
aI4
aI32
aI45
aI35
aI2
aI54
aI39
aI36
aI45
aI2
aI40
aI2
aI38
aI46
aI2
aI51
aI46
aI2
aI39
aI46
aI45
aI38
aI2
aI42
aI46
aI45
aI38
aI2
aI40
aI2
aI34
aI32
aI45
aI2
aI35
aI46
aI2
aI32
aI45
aI56
aI51
aI39
aI40
aI45
aI38
aI2
aI40
aI2
aI54
aI32
aI45
aI51
aI15
aI4
aI1
aI40
aI2
aI43
aI32
aI52
aI38
aI39
aI36
aI35
aI13
aI2
aI50
aI36
aI36
aI40
aI45
aI38
aI2
aI40
aI51
aI2
aI32
aI43
aI43
aI2
aI46
aI45
aI2
aI37
aI40
aI43
aI44
aI2
aI14
aa(lp8
I2
aI50
aI46
aI44
aI36
aI2
aI22
aI17
aI17
aI2
aI40
aI45
aI35
aI40
aI32
aI45
aI50
aI2
aI32
aI51
aI2
aI51
aI39
aI36
aI2
aI38
aI32
aI51
aI39
aI36
aI49
aI40
aI45
aI38
aI13
aI2
aI32
aI45
aI35
aI2
aI46
aI45
aI36
aI2
aI46
aI37
aI2
aI51
aI39
aI36
aI2
aI43
aI36
aI32
aI35
aI36
aI49
aI50
aI2
aI50
aI32
aI40
aI35
aI2
aI39
aI32
aI47
aI47
aI40
aI43
aI56
aI2
aI51
aI39
aI32
aI51
aI2
aI40
aI51
aI2
aI54
aI32
aI50
aI2
aI51
aI39
aI36
aI2
aI37
aI40
aI49
aI50
aI51
aI2
aI51
aI40
aI44
aI36
aI2
aI40
aa(lp9
I51
aI32
aI38
aI36
aI2
aI46
aI37
aI2
aI35
aI46
aI34
aI52
aI44
aI36
aI45
aI51
aI32
aI51
aI40
aI46
aI45
aI2
aI37
aI46
aI49
aI2
aI51
aI39
aI36
aI2
aI51
aI39
aI36
aI50
aI40
aI50
aI2
aI51
aI39
aI32
aI51
aI2
aI51
aI39
aI36
aI2
aI34
aI52
aI49
aI49
aI36
aI45
aI51
aI2
aI39
aI32
aI40
aI38
aI39
aI51
aI14
aI32
aI50
aI39
aI33
aI52
aI49
aI56
aI2
aI50
aI34
aI36
aI45
aI36
aI2
aI40
aI50
aI2
aI46
aI45
aI43
aI56
aI2
aI51
aI39
aI36
aI2
aI46
aI49
aI38
aI40
aI32
aI50
aI51
aI40
aI34
aI2
aI51
aI40
aI47
aa(lp10
I2
aI40
aI9
aI43
aI43
aI2
aI50
aI43
aI32
aI47
aI2
aI56
aI46
aI52
aI15
aI2
aI51
aI39
aI36
aI2
aI54
aI39
aI40
aI51
aI36
aI2
aI44
aI32
aI45
aI2
aI34
aI32
aI45
aI9
aI51
aI2
aI34
aI32
aI43
aI43
aI2
aI44
aI36
aI2
aI45
aI40
aI38
aI38
aI36
aI49
aI2
aI43
aI40
aI42
aI36
aI2
aI51
aI39
aI36
aI56
aI2
aI35
aI46
aI15
aI1
aI50
aI46
aI2
aI40
aI51
aI2
aI54
aI32
aI50
aI2
aI32
aI2
aI41
aI46
aI42
aI36
aI29
aI2
aI40
aI51
aI2
aI50
aI51
aI49
aI52
aI34
aI42
aI2
aI44
aI36
aI2
aI32
aI50
aI2
aI32
aa(lp11
I2
aI32
aI49
aI36
aI2
aI53
aI40
aI34
aI40
aI46
aI52
aI50
aI2
aI49
aI32
aI34
aI40
aI50
aI51
aI50
aI2
aI32
aI45
aI35
aI2
aI35
aI32
aI45
aI38
aI36
aI49
aI46
aI52
aI50
aI2
aI47
aI36
aI46
aI47
aI43
aI36
aI2
aI51
aI46
aI2
aI34
aI49
aI46
aI50
aI50
aI15
aI2
aI54
aI39
aI40
aI34
aI39
aI2
aI40
aI50
aI2
aI36
aI45
aI51
aI40
aI49
aI36
aI43
aI56
aI2
aI52
aI45
aI51
aI49
aI52
aI36
aI2
aI40
aI45
aI2
aI43
aI46
aI52
aI40
aI50
aI53
aI40
aI43
aI43
aI36
aI2
aI14
aI14
aI2
aI32
aI43
aI51
aI39
aI46
aI52
aa(lp12
I43
aI40
aI34
aI36
aI2
aI49
aI36
aI47
aI46
aI49
aI51
aI36
aI35
aI2
aI51
aI39
aI36
aI2
aI38
aI49
aI46
aI52
aI47
aI2
aI50
aI51
aI32
aI49
aI51
aI36
aI35
aI2
aI49
aI40
aI47
aI47
aI40
aI45
aI38
aI2
aI52
aI47
aI2
aI51
aI39
aI36
aI2
aI54
aI39
aI46
aI43
aI36
aI2
aI47
aI43
aI32
aI34
aI36
aI2
aI32
aI37
aI51
aI36
aI49
aI2
aI50
aI46
aI44
aI36
aI46
aI45
aI36
aI2
aI39
aI32
aI35
aI2
aI50
aI47
aI43
aI32
aI50
aI39
aI36
aI35
aI2
aI32
aI2
aI44
aI52
aI38
aI2
aI46
aI37
aI2
aI33
aI36
aI36
aI49
aI2
aa(lp13
I37
aI46
aI49
aI2
aI44
aI36
aI15
aI1
aI51
aI39
aI36
aI49
aI36
aI2
aI40
aI50
aI2
aI50
aI46
aI44
aI36
aI2
aI42
aI40
aI45
aI35
aI2
aI46
aI37
aI2
aI39
aI36
aI32
aI53
aI56
aI2
aI34
aI46
aI45
aI45
aI36
aI34
aI51
aI40
aI46
aI45
aI2
aI33
aI36
aI51
aI54
aI36
aI36
aI45
aI2
aI51
aI39
aI32
aI51
aI2
aI44
aI36
aI44
aI46
aI49
aI56
aI2
aI32
aI45
aI35
aI2
aI51
aI39
aI36
aI2
aI54
aI32
aI56
aI2
aI40
aI2
aI37
aI36
aI36
aI43
aI2
aI49
aI40
aI38
aI39
aI51
aI2
aI45
aI46
aI54
aI2
aI32
aI33
aI46
aI52
aa(lp14
I2
aI39
aI40
aI43
aI43
aI2
aI51
aI46
aI2
aI51
aI39
aI36
aI2
aI44
aI52
aI50
aI42
aI40
aI36
aI2
aI51
aI46
aI44
aI33
aI2
aI46
aI45
aI2
aI42
aI2
aI50
aI51
aI49
aI36
aI36
aI51
aI13
aI2
aI40
aI45
aI2
aI51
aI39
aI36
aI2
aI37
aI32
aI50
aI39
aI40
aI46
aI45
aI32
aI33
aI43
aI36
aI2
aI35
aI46
aI54
aI45
aI51
aI46
aI54
aI45
aI2
aI32
aI49
aI36
aI32
aI15
aI2
aI40
aI51
aI2
aI54
aI32
aI50
aI2
aI32
aI2
aI34
aI36
aI45
aI51
aI49
aI32
aI43
aI2
aI43
aI46
aI34
aI32
aI51
aI40
aI46
aI45
aI13
aI2
aI51
aa(lp15
I2
aI51
aI39
aI32
aI51
aI2
aI34
aI46
aI49
aI49
aI52
aI47
aI51
aI2
aI51
aI39
aI36
aI2
aI47
aI46
aI50
aI50
aI40
aI33
aI40
aI43
aI40
aI51
aI40
aI36
aI50
aI2
aI46
aI37
aI2
aI51
aI39
aI36
aI2
aI32
aI44
aI36
aI49
aI40
aI34
aI32
aI45
aI2
aI35
aI49
aI36
aI32
aI44
aI28
aI2
aI39
aI36
aI2
aI54
aI32
aI50
aI2
aI32
aI2
aI37
aI46
aI52
aI43
aI2
aI34
aI32
aI49
aI40
aI34
aI32
aI51
aI52
aI49
aI36
aI2
aI46
aI37
aI2
aI39
aI40
aI44
aI50
aI36
aI43
aI37
aI13
aI2
aI32
aI2
aI44
aI32
aI45
aI2
aI54
aI40
aa(lp16
I32
aI45
aI35
aI2
aI43
aI32
aI54
aI56
aI36
aI49
aI50
aI13
aI2
aI33
aI52
aI51
aI2
aI39
aI36
aI2
aI54
aI32
aI50
aI2
aI51
aI32
aI43
aI43
aI2
aI46
aI45
aI2
aI39
aI40
aI50
aI2
aI46
aI54
aI45
aI2
aI39
aI40
aI45
aI35
aI2
aI43
aI36
aI38
aI50
aI2
aI54
aI39
aI36
aI45
aI2
aI39
aI36
aI2
aI54
aI32
aI43
aI42
aI36
aI35
aI2
aI32
aI51
aI2
aI45
aI40
aI38
aI39
aI51
aI2
aI54
aI40
aI51
aI39
aI2
aI51
aI39
aI36
aI2
aI42
aI40
aI45
aI38
aI15
aI2
aI15
aI2
aI15
aI1
aI51
aI39
aI36
aI2
aI37
aI46
aI43
aa(lp17
I50
aI13
aI2
aI45
aI40
aI38
aI39
aI51
aI49
aI40
aI35
aI36
aI49
aI50
aI13
aI2
aI34
aI46
aI44
aI32
aI45
aI34
aI39
aI36
aI49
aI46
aI50
aI13
aI2
aI47
aI49
aI36
aI50
aI40
aI35
aI36
aI45
aI51
aI50
aI2
aI32
aI45
aI35
aI2
aI50
aI32
aI51
aI32
aI45
aI50
aI2
aI50
aI43
aI32
aI53
aI36
aI50
aI15
aI2
aI32
aI33
aI46
aI52
aI51
aI2
aI32
aI2
aI39
aI52
aI45
aI35
aI49
aI36
aI35
aI2
aI32
aI45
aI35
aI2
aI37
aI40
aI37
aI51
aI56
aI2
aI2
aI32
aI50
aI2
aI46
aI37
aI2
aI18
aI26
aI23
aI23
aI2
aI2
aI37
aI46
aa(lp18
I54
aI32
aI45
aI51
aI36
aI35
aI2
aI51
aI46
aI2
aI35
aI49
aI32
aI38
aI2
aI51
aI39
aI36
aI2
aI53
aI40
aI34
aI40
aI46
aI52
aI50
aI2
aI33
aI32
aI50
aI51
aI32
aI49
aI35
aI2
aI35
aI46
aI54
aI45
aI2
aI47
aI36
aI45
aI45
aI50
aI56
aI43
aI53
aI32
aI45
aI40
aI32
aI2
aI32
aI53
aI36
aI45
aI52
aI36
aI2
aI32
aI51
aI2
aI23
aI17
aI2
aI44
aI40
aI43
aI36
aI50
aI2
aI47
aI36
aI49
aI2
aI39
aI46
aI52
aI49
aI2
aI33
aI36
aI39
aI40
aI45
aI35
aI2
aI32
aI2
aI38
aI46
aI43
aI35
aI2
aI46
aI43
aI35
aI50
aI44
aa(lp19
I45
aI35
aI2
aI32
aI34
aI34
aI46
aI49
aI35
aI40
aI45
aI38
aI2
aI51
aI46
aI2
aI38
aI32
aI49
aI56
aI2
aI39
aI32
aI49
aI51
aI13
aI2
aI40
aI51
aI2
aI54
aI32
aI50
aI2
aI50
aI46
aI2
aI35
aI32
aI44
aI32
aI38
aI50
aI40
aI45
aI38
aI2
aI32
aI50
aI2
aI51
aI46
aI2
aI33
aI36
aI2
aI37
aI32
aI51
aI32
aI43
aI15
aI2
aI38
aI32
aI49
aI56
aI2
aI52
aI45
aI35
aI36
aI49
aI50
aI51
aI46
aI46
aI35
aI2
aI51
aI39
aI40
aI50
aI2
aI32
aI50
aI2
aI36
aI32
aI49
aI43
aI56
aI2
aI32
aI50
aI2
aI44
aI40
aI35
aI14
aa(lp20
I35
aI32
aI56
aI2
aI42
aI36
aI36
aI47
aI40
aI45
aI38
aI2
aI40
aI51
aI2
aI34
aI46
aI45
aI50
aI51
aI32
aI45
aI51
aI43
aI56
aI2
aI52
aI47
aI2
aI51
aI46
aI2
aI35
aI32
aI51
aI36
aI2
aI46
aI45
aI2
aI46
aI45
aI36
aI2
aI46
aI37
aI2
aI39
aI40
aI50
aI2
aI56
aI36
aI43
aI43
aI46
aI54
aI2
aI43
aI36
aI38
aI32
aI43
aI2
aI47
aI32
aI35
aI50
aI15
aI1
aI50
aI46
aI2
aI39
aI36
aI49
aI36
aI2
aI40
aI51
aI2
aI40
aI50
aI2
aI14
aI14
aI2
aI51
aI39
aI36
aI2
aI37
aI40
aI45
aI32
aI43
aI2
aI50
aI46
aI43
aa(lp21
I32
aI57
aI32
aI49
aI9
aI50
aI2
aI39
aI36
aI40
aI49
aI2
aI32
aI47
aI47
aI32
aI49
aI36
aI45
aI51
aI13
aI2
aI50
aI52
aI35
aI35
aI36
aI45
aI43
aI56
aI2
aI35
aI40
aI50
aI34
aI46
aI53
aI36
aI49
aI36
aI35
aI2
aI51
aI39
aI32
aI51
aI2
aI39
aI36
aI2
aI39
aI32
aI35
aI2
aI45
aI46
aI2
aI43
aI36
aI53
aI36
aI49
aI32
aI38
aI36
aI2
aI32
aI51
aI2
aI32
aI43
aI43
aI15
aI2
aI39
aI36
aI2
aI54
aI32
aI50
aI2
aI44
aI52
aI50
aI34
aI43
aI36
aI35
aI2
aI40
aI45
aI51
aI46
aI2
aI32
aI2
aI50
aI51
aI49
aI32
aa(lp22
I46
aI45
aI2
aI51
aI46
aI45
aI40
aI38
aI39
aI51
aI9
aI50
aI2
aI51
aI53
aI2
aI45
aI36
aI54
aI50
aI2
aI32
aI45
aI35
aI2
aI40
aI45
aI2
aI51
aI46
aI44
aI46
aI49
aI49
aI46
aI54
aI9
aI50
aI2
aI45
aI36
aI54
aI50
aI47
aI32
aI47
aI36
aI49
aI50
aI15
aI2
aI43
aI40
aI42
aI36
aI2
aI32
aI45
aI56
aI2
aI46
aI51
aI39
aI36
aI49
aI2
aI38
aI46
aI46
aI35
aI2
aI47
aI49
aI36
aI50
aI50
aI2
aI50
aI36
aI34
aI49
aI36
aI51
aI32
aI49
aI56
aI13
aI2
aI42
aI40
aI49
aI33
aI56
aI2
aI35
aI46
aI36
aI50
aI45
aI9
aa(lp23
I43
aI56
aI2
aI34
aI46
aI45
aI50
aI40
aI50
aI51
aI36
aI45
aI51
aI43
aI56
aI2
aI52
aI50
aI36
aI37
aI52
aI43
aI2
aI37
aI52
aI45
aI34
aI51
aI40
aI46
aI45
aI2
aI46
aI37
aI2
aI51
aI39
aI36
aI2
aI47
aI34
aI2
aI40
aI50
aI2
aI51
aI39
aI36
aI2
aI46
aI43
aI35
aI2
aI37
aI32
aI40
aI51
aI39
aI37
aI52
aI43
aI2
aI4
aI47
aI46
aI50
aI40
aI51
aI40
aI46
aI45
aI50
aI2
aI46
aI47
aI36
aI45
aI4
aI2
aI50
aI36
aI34
aI51
aI40
aI46
aI45
aI15
aI2
aI37
aI46
aI49
aI2
aI40
aI45
aI50
aI51
aI32
aI45
aI34
aI36
aa(lp24
I51
aI36
aI2
aI46
aI37
aI2
aI35
aI52
aI32
aI45
aI36
aI2
aI51
aI39
aI46
aI44
aI32
aI50
aI2
aI32
aI45
aI35
aI2
aI51
aI39
aI36
aI2
aI47
aI40
aI38
aI50
aI2
aI54
aI39
aI46
aI2
aI49
aI52
aI45
aI2
aI51
aI39
aI36
aI2
aI45
aI32
aI51
aI40
aI46
aI45
aI32
aI43
aI2
aI37
aI46
aI46
aI51
aI33
aI32
aI43
aI43
aI2
aI43
aI36
aI32
aI38
aI52
aI36
aI15
aI1
aI45
aI36
aI40
aI51
aI39
aI36
aI49
aI2
aI33
aI46
aI33
aI2
aI54
aI46
aI46
aI35
aI54
aI32
aI49
aI35
aI2
aI45
aI46
aI49
aI2
aI34
aI32
aI49
aI43
aI2
aa(lp25
I13
aI2
aI44
aI40
aI51
aI34
aI39
aI36
aI43
aI43
aI2
aI51
aI39
aI40
aI45
aI42
aI50
aI15
aI2
aI51
aI39
aI36
aI2
aI43
aI32
aI50
aI51
aI2
aI51
aI39
aI40
aI45
aI38
aI2
aI40
aI2
aI45
aI36
aI36
aI35
aI2
aI49
aI40
aI38
aI39
aI51
aI2
aI45
aI46
aI54
aI2
aI40
aI50
aI2
aI51
aI46
aI2
aI39
aI32
aI53
aI36
aI2
aI39
aI36
aI49
aI2
aI50
aI34
aI49
aI36
aI32
aI44
aI40
aI45
aI38
aI2
aI32
aI49
aI46
aI52
aI45
aI35
aI2
aI51
aI39
aI36
aI2
aI32
aI47
aI32
aI49
aI51
aI44
aI36
aI45
aI51
aI2
aI32
aI43
aI43
aa(lp26
I2
aI45
aI46
aI54
aI2
aI32
aI45
aI35
aI2
aI51
aI39
aI36
aI45
aI13
aI2
aI50
aI46
aI44
aI36
aI33
aI46
aI35
aI56
aI2
aI54
aI46
aI52
aI43
aI35
aI2
aI41
aI36
aI49
aI42
aI2
aI46
aI45
aI36
aI2
aI46
aI37
aI2
aI51
aI39
aI36
aI2
aI38
aI40
aI32
aI45
aI51
aI2
aI51
aI52
aI49
aI51
aI43
aI36
aI50
aI2
aI46
aI52
aI51
aI2
aI46
aI37
aI2
aI51
aI39
aI36
aI2
aI51
aI32
aI45
aI42
aI2
aI46
aI45
aI2
aI51
aI39
aI36
aI2
aI47
aI32
aI51
aI40
aI46
aI2
aI32
aI45
aI35
aI2
aI51
aI39
aI49
aI52
aI50
aI51
aI2
aa(lp27
I45
aI2
aI54
aI49
aI40
aI51
aI51
aI36
aI45
aI2
aI46
aI45
aI2
aI51
aI39
aI36
aI2
aI44
aI36
aI32
aI45
aI40
aI45
aI38
aI2
aI46
aI37
aI2
aI44
aI32
aI45
aI2
aI32
aI45
aI35
aI2
aI51
aI39
aI32
aI51
aI2
aI50
aI46
aI49
aI51
aI2
aI46
aI37
aI2
aI51
aI39
aI40
aI45
aI38
aI13
aI2
aI32
aI45
aI35
aI2
aI38
aI46
aI35
aI2
aI46
aI45
aI43
aI56
aI2
aI42
aI45
aI46
aI54
aI50
aI2
aI39
aI46
aI54
aI2
aI44
aI32
aI45
aI56
aI2
aI47
aI36
aI46
aI47
aI43
aI36
aI2
aI39
aI32
aI53
aI36
aI2
aI47
aI46
aI45
aI35
aa(lp28
I2
aI37
aI49
aI46
aI44
aI2
aI51
aI39
aI36
aI2
aI37
aI52
aI43
aI43
aI56
aI2
aI43
aI46
aI32
aI35
aI36
aI35
aI2
aI37
aI52
aI36
aI43
aI2
aI51
aI32
aI45
aI42
aI15
aI2
aI50
aI46
aI44
aI36
aI33
aI46
aI35
aI56
aI2
aI50
aI39
aI46
aI52
aI43
aI35
aI2
aI39
aI32
aI53
aI36
aI2
aI44
aI36
aI45
aI51
aI40
aI46
aI45
aI36
aI35
aI2
aI51
aI39
aI36
aI2
aI34
aI40
aI38
aI32
aI49
aI36
aI51
aI51
aI36
aI13
aI2
aI40
aI2
aI51
aI39
aI46
aI52
aI38
aI39
aI51
aI13
aI2
aI32
aI45
aI35
aI2
aI51
aI39
aI36
aI2
aI37
aa(lp29
I44
aI2
aI32
aI45
aI35
aI2
aI33
aI36
aI40
aI45
aI38
aI2
aI34
aI46
aI45
aI50
aI40
aI35
aI36
aI49
aI36
aI35
aI2
aI37
aI46
aI49
aI2
aI32
aI2
aI49
aI36
aI43
aI36
aI32
aI50
aI36
aI15
aI2
aI35
aI46
aI45
aI9
aI51
aI2
aI56
aI46
aI52
aI2
aI51
aI39
aI40
aI45
aI42
aI2
aI51
aI39
aI32
aI51
aI2
aI51
aI39
aI36
aI56
aI2
aI46
aI52
aI38
aI39
aI51
aI2
aI51
aI46
aI2
aI33
aI36
aI2
aI36
aI55
aI32
aI44
aI40
aI45
aI36
aI35
aI2
aI32
aI45
aI35
aI2
aI51
aI39
aI32
aI51
aI2
aI51
aI39
aI36
aI2
aI47
aI32
aa(lp30
I2
aI37
aI46
aI49
aI2
aI51
aI54
aI36
aI43
aI53
aI36
aI2
aI34
aI36
aI45
aI51
aI50
aI15
aI1
aI44
aI46
aI50
aI51
aI2
aI44
aI32
aI44
aI32
aI50
aI2
aI35
aI46
aI45
aI51
aI2
aI51
aI39
aI40
aI45
aI42
aI2
aI32
aI33
aI46
aI52
aI51
aI2
aI40
aI51
aI13
aI2
aI44
aI52
aI34
aI39
aI2
aI43
aI36
aI50
aI50
aI2
aI51
aI32
aI43
aI42
aI15
aI2
aI51
aI39
aI36
aI40
aI49
aI2
aI34
aI46
aI45
aI53
aI36
aI49
aI50
aI32
aI51
aI40
aI46
aI45
aI2
aI49
aI32
aI45
aI38
aI36
aI50
aI2
aI37
aI49
aI46
aI44
aI2
aI38
aI46
aa(lp31
I2
aI42
aI45
aI36
aI54
aI2
aI54
aI36
aI9
aI35
aI2
aI38
aI36
aI51
aI2
aI40
aI45
aI51
aI46
aI2
aI51
aI39
aI32
aI51
aI2
aI49
aI46
aI51
aI51
aI36
aI45
aI2
aI50
aI51
aI52
aI37
aI37
aI2
aI47
aI49
aI36
aI51
aI51
aI56
aI2
aI50
aI46
aI46
aI45
aI15
aI2
aI47
aI49
aI46
aI33
aI32
aI33
aI43
aI56
aI2
aI32
aI51
aI2
aI51
aI39
aI36
aI2
aI45
aI36
aI55
aI51
aI2
aI38
aI32
aI50
aI2
aI50
aI51
aI32
aI51
aI40
aI46
aI45
aI15
aI2
aI54
aI36
aI2
aI39
aI32
aI35
aI2
aI50
aI32
aI44
aI47
aI43
aI36
aI35
aI2
aa(lp32
I39
aI36
aI32
aI35
aI48
aI52
aI32
aI49
aI51
aI36
aI49
aI50
aI2
aI46
aI37
aI2
aI51
aI39
aI36
aI2
aI46
aI32
aI42
aI43
aI32
aI45
aI35
aI2
aI34
aI39
aI32
aI47
aI51
aI36
aI49
aI2
aI32
aI45
aI35
aI2
aI32
aI2
aI37
aI46
aI34
aI32
aI43
aI2
aI47
aI46
aI40
aI45
aI51
aI2
aI37
aI46
aI49
aI2
aI32
aI43
aI43
aI2
aI39
aI36
aI43
aI43
aI50
aI2
aI32
aI45
aI38
aI36
aI43
aI50
aI2
aI32
aI34
aI51
aI40
aI53
aI40
aI51
aI56
aI2
aI40
aI45
aI2
aI45
aI46
aI49
aI51
aI39
aI36
aI49
aI45
aI2
aI34
aI32
aI43
aI40
aa(lp33
I33
aI36
aI38
aI32
aI45
aI2
aI51
aI39
aI40
aI50
aI2
aI35
aI46
aI46
aI44
aI14
aI50
aI51
aI49
aI52
aI34
aI42
aI2
aI50
aI51
aI46
aI49
aI56
aI2
aI44
aI32
aI45
aI56
aI2
aI44
aI46
aI45
aI51
aI39
aI50
aI2
aI32
aI38
aI46
aI13
aI2
aI51
aI39
aI36
aI2
aI40
aI35
aI36
aI32
aI2
aI54
aI32
aI50
aI2
aI51
aI46
aI2
aI37
aI46
aI43
aI43
aI46
aI54
aI2
aI46
aI45
aI36
aI2
aI51
aI36
aI32
aI44
aI2
aI32
aI43
aI43
aI2
aI51
aI39
aI36
aI2
aI54
aI32
aI56
aI2
aI51
aI46
aI2
aI51
aI39
aI36
aI2
aI50
aI52
aI47
aa(lp34
I46
aI40
aI49
aI14
aI37
aI32
aI40
aI49
aI36
aI13
aI2
aI32
aI45
aI35
aI2
aI51
aI39
aI36
aI40
aI49
aI2
aI47
aI49
aI36
aI35
aI40
aI43
aI36
aI34
aI51
aI40
aI46
aI45
aI2
aI37
aI46
aI49
aI2
aI51
aI49
aI32
aI53
aI36
aI43
aI43
aI40
aI45
aI38
aI2
aI40
aI45
aI2
aI47
aI32
aI34
aI42
aI50
aI2
aI40
aI50
aI2
aI32
aI2
aI43
aI46
aI45
aI38
aI2
aI54
aI32
aI56
aI2
aI37
aI49
aI46
aI44
aI2
aI33
aI36
aI40
aI45
aI38
aI2
aI32
aI43
aI43
aI2
aI50
aI39
aI46
aI54
aI33
aI40
aI57
aI15
aI2
aI45
aI46
aI49
aI2
aa(lp35
I51
aI39
aI36
aI49
aI2
aI33
aI32
aI35
aI38
aI36
aI2
aI54
aI46
aI49
aI45
aI2
aI33
aI56
aI2
aI50
aI46
aI44
aI36
aI2
aI44
aI36
aI44
aI33
aI36
aI49
aI50
aI2
aI33
aI36
aI32
aI49
aI50
aI2
aI51
aI39
aI36
aI2
aI45
aI52
aI44
aI33
aI36
aI49
aI2
aI18
aI20
aI15
aI2
aI40
aI51
aI2
aI40
aI50
aI2
aI49
aI36
aI47
aI46
aI49
aI51
aI36
aI35
aI2
aI51
aI46
aI2
aI49
aI36
aI47
aI49
aI36
aI50
aI36
aI45
aI51
aI2
aI51
aI39
aI36
aI2
aI18
aI20
aI51
aI39
aI2
aI43
aI36
aI51
aI51
aI36
aI49
aI2
aI46
aI37
aI2
aa(lp36
I35
aI2
aI33
aI36
aI36
aI45
aI2
aI46
aI37
aI37
aI36
aI49
aI36
aI35
aI2
aI32
aI45
aI35
aI2
aI44
aI56
aI2
aI51
aI39
aI40
aI49
aI50
aI51
aI2
aI54
aI32
aI50
aI2
aI33
aI36
aI34
aI46
aI44
aI40
aI45
aI38
aI2
aI32
aI34
aI52
aI51
aI36
aI15
aI2
aI41
aI36
aI32
aI45
aI14
aI34
aI43
aI32
aI52
aI35
aI36
aI2
aI41
aI52
aI50
aI51
aI2
aI50
aI51
aI46
aI46
aI35
aI2
aI51
aI39
aI36
aI49
aI36
aI2
aI40
aI45
aI2
aI39
aI40
aI50
aI2
aI33
aI43
aI32
aI57
aI36
aI49
aI13
aI2
aI50
aI44
aI40
aI43
aI40
aI45
aI38
aa(lp37
I52
aI51
aI2
aI40
aI37
aI2
aI40
aI51
aI2
aI40
aI50
aI13
aI2
aI43
aI36
aI46
aI45
aI2
aI40
aI50
aI2
aI34
aI52
aI51
aI51
aI40
aI45
aI38
aI2
aI39
aI40
aI50
aI2
aI44
aI32
aI49
aI38
aI40
aI45
aI2
aI47
aI49
aI36
aI51
aI51
aI56
aI2
aI51
aI39
aI40
aI45
aI28
aI2
aI39
aI36
aI2
aI54
aI40
aI43
aI43
aI2
aI39
aI32
aI53
aI36
aI2
aI51
aI46
aI2
aI47
aI43
aI32
aI56
aI2
aI39
aI40
aI50
aI2
aI43
aI32
aI50
aI51
aI2
aI51
aI39
aI49
aI36
aI36
aI2
aI39
aI46
aI43
aI36
aI50
aI2
aI32
aI43
aI43
aI2
aI32
aa(lp38
I51
aI2
aI51
aI39
aI32
aI45
aI2
aI40
aI2
aI32
aI44
aI15
aI1
aI4
aI32
aI45
aI35
aI2
aI33
aI36
aI50
aI40
aI35
aI36
aI50
aI13
aI2
aI51
aI49
aI52
aI51
aI39
aI2
aI40
aI50
aI2
aI32
aI45
aI2
aI32
aI33
aI50
aI46
aI43
aI52
aI51
aI36
aI2
aI35
aI36
aI37
aI36
aI45
aI50
aI36
aI2
aI32
aI38
aI32
aI40
aI45
aI50
aI51
aI2
aI43
aI40
aI33
aI36
aI43
aI13
aI2
aI32
aI45
aI56
aI54
aI32
aI56
aI15
aI2
aI15
aI2
aI15
aI2
aI41
aI36
aI50
aI52
aI50
aI13
aI2
aI56
aI46
aI52
aI2
aI35
aI46
aI45
aI9
aI51
aI2
aa(lp39
I51
aI39
aI36
aI2
aI51
aI49
aI32
aI34
aI42
aI15
aI2
aI36
aI44
aI36
aI49
aI38
aI40
aI45
aI38
aI2
aI37
aI49
aI46
aI44
aI2
aI51
aI39
aI36
aI2
aI51
aI52
aI45
aI45
aI36
aI43
aI2
aI54
aI32
aI50
aI2
aI50
aI52
aI34
aI39
aI2
aI32
aI2
aI34
aI52
aI43
aI51
aI52
aI49
aI36
aI2
aI50
aI39
aI46
aI34
aI42
aI2
aI51
aI39
aI32
aI51
aI2
aI40
aI51
aI2
aI51
aI46
aI46
aI42
aI2
aI52
aI50
aI2
aI32
aI2
aI54
aI39
aI40
aI43
aI36
aI2
aI51
aI46
aI2
aI32
aI35
aI41
aI52
aI50
aI51
aI15
aI2
aI34
aI46
aI46
aI43
aa(lp40
I12
aI1
aI1
aI50
aI51
aI49
aI32
aI45
aI38
aI36
aI2
aI44
aI36
aI44
aI46
aI49
aI40
aI36
aI50
aI2
aI46
aI45
aI2
aI51
aI39
aI40
aI50
aI2
aI45
aI36
aI49
aI53
aI46
aI52
aI50
aI2
aI45
aI40
aI38
aI39
aI51
aI2
aI40
aI45
aI2
aI43
aI32
aI50
aI2
aI53
aI36
aI38
aI32
aI50
aI15
aI2
aI37
aI40
aI53
aI36
aI2
aI56
aI36
aI32
aI49
aI50
aI2
aI43
aI32
aI51
aI36
aI49
aI29
aI2
aI50
aI40
aI55
aI29
aI2
aI40
aI51
aI2
aI50
aI36
aI36
aI44
aI50
aI2
aI43
aI40
aI42
aI36
aI2
aI32
aI2
aI43
aI40
aI37
aI36
aI51
aa(lp41
I2
aI44
aI46
aI53
aI36
aI50
aI2
aI54
aI32
aI50
aI2
aI40
aI45
aI51
aI36
aI45
aI51
aI40
aI46
aI45
aI32
aI43
aI2
aI40
aI45
aI2
aI51
aI36
aI49
aI44
aI50
aI2
aI46
aI37
aI2
aI51
aI40
aI44
aI36
aI2
aI46
aI49
aI2
aI47
aI43
aI32
aI34
aI36
aI28
aI2
aI51
aI39
aI36
aI56
aI2
aI41
aI52
aI50
aI51
aI2
aI50
aI36
aI36
aI44
aI36
aI35
aI2
aI51
aI46
aI2
aI39
aI32
aI47
aI47
aI36
aI45
aI15
aI2
aI54
aI39
aI36
aI45
aI2
aI40
aI2
aI44
aI46
aI53
aI36
aI35
aI2
aI40
aI45
aI51
aI46
aI2
aI51
aI39
aI36
aI2
aa(lp42
I32
aI38
aI45
aI36
aI54
aI2
aI43
aI32
aI45
aI35
aI50
aI43
aI40
aI35
aI36
aI2
aI40
aI45
aI2
aI18
aI26
aI24
aI19
aI2
aI37
aI46
aI49
aI34
aI36
aI35
aI2
aI51
aI39
aI36
aI2
aI32
aI35
aI44
aI40
aI51
aI51
aI36
aI35
aI43
aI56
aI2
aI32
aI45
aI51
aI40
aI14
aI45
aI40
aI55
aI46
aI45
aI2
aI51
aI40
aI44
aI36
aI50
aI2
aI40
aI45
aI51
aI46
aI2
aI32
aI2
aI50
aI51
aI32
aI45
aI34
aI36
aI2
aI46
aI37
aI2
aI32
aI38
aI46
aI45
aI40
aI57
aI40
aI45
aI38
aI2
aI49
aI36
aI32
aI47
aI47
aI49
aI32
aI40
aI50
aI32
aa(lp43
I49
aI32
aI54
aI45
aI15
aI2
aI50
aI39
aI40
aI51
aI13
aI2
aI40
aI2
aI50
aI32
aI40
aI35
aI15
aI2
aI54
aI36
aI2
aI33
aI46
aI51
aI39
aI2
aI43
aI46
aI46
aI42
aI2
aI54
aI46
aI49
aI50
aI36
aI2
aI51
aI39
aI32
aI45
aI2
aI32
aI45
aI56
aI51
aI39
aI40
aI45
aI38
aI2
aI56
aI46
aI52
aI53
aI36
aI2
aI35
aI49
aI32
aI54
aI45
aI2
aI39
aI36
aI49
aI36
aI15
aI1
aI1
aI39
aI36
aI2
aI50
aI44
aI40
aI43
aI36
aI35
aI15
aI2
aI56
aI46
aI52
aI2
aI42
aI45
aI46
aI54
aI2
aI2
aI40
aI53
aI36
aI2
aI33
aI36
aI36
aa(lp44
I40
aI50
aI2
aI33
aI49
aI52
aI51
aI36
aI2
aI51
aI39
aI36
aI56
aI2
aI47
aI52
aI50
aI39
aI36
aI35
aI2
aI56
aI46
aI52
aI2
aI40
aI45
aI51
aI46
aI2
aI51
aI39
aI36
aI2
aI49
aI40
aI45
aI38
aI2
aI54
aI40
aI51
aI39
aI2
aI39
aI32
aI50
aI2
aI45
aI46
aI2
aI49
aI36
aI53
aI36
aI49
aI50
aI36
aI2
aI38
aI36
aI32
aI49
aI2
aI32
aI45
aI35
aI2
aI54
aI46
aI52
aI43
aI35
aI2
aI41
aI52
aI50
aI51
aI2
aI32
aI50
aI2
aI50
aI46
aI46
aI45
aI2
aI32
aI51
aI51
aI32
aI34
aI42
aI2
aI32
aI2
aI51
aI36
aI43
aI36
aa(lp45
I39
aI36
aI2
aI50
aI32
aI40
aI35
aI13
aI2
aI4
aI40
aI2
aI41
aI52
aI50
aI51
aI2
aI32
aI33
aI46
aI52
aI51
aI2
aI37
aI43
aI40
aI47
aI47
aI36
aI35
aI2
aI54
aI39
aI36
aI45
aI2
aI56
aI46
aI52
aI2
aI41
aI52
aI44
aI47
aI36
aI35
aI2
aI40
aI45
aI51
aI46
aI2
aI51
aI39
aI36
aI2
aI49
aI46
aI46
aI44
aI2
aI54
aI40
aI51
aI39
aI2
aI51
aI39
aI32
aI51
aI2
aI38
aI46
aI35
aI35
aI32
aI44
aI45
aI2
aI44
aI32
aI50
aI42
aI2
aI46
aI45
aI2
aI56
aI46
aI52
aI49
aI2
aI39
aI36
aI32
aI35
aI15
aI2
aI51
aI39
aa(lp46
I32
aI45
aI35
aI2
aI32
aI43
aI50
aI46
aI2
aI32
aI2
aI48
aI52
aI32
aI49
aI51
aI2
aI46
aI37
aI2
aI51
aI36
aI48
aI52
aI40
aI43
aI32
aI13
aI2
aI32
aI2
aI48
aI52
aI32
aI49
aI51
aI2
aI46
aI37
aI2
aI49
aI52
aI44
aI13
aI2
aI32
aI2
aI34
aI32
aI50
aI36
aI2
aI46
aI37
aI2
aI33
aI52
aI35
aI54
aI36
aI40
aI50
aI36
aI49
aI13
aI2
aI32
aI2
aI47
aI40
aI45
aI51
aI2
aI46
aI37
aI2
aI49
aI32
aI54
aI2
aI36
aI51
aI39
aI36
aI49
aI2
aI32
aI45
aI35
aI2
aI51
aI54
aI46
aI2
aI35
aI46
aI57
aI36
aI45
aI2
aa(lp47
I2
aI54
aI32
aI50
aI2
aI40
aI51
aI2
aI47
aI46
aI50
aI50
aI40
aI33
aI43
aI36
aI2
aI51
aI39
aI32
aI51
aI2
aI32
aI2
aI54
aI36
aI43
aI43
aI14
aI42
aI45
aI46
aI54
aI45
aI2
aI47
aI49
aI32
aI34
aI51
aI40
aI34
aI40
aI45
aI38
aI2
aI32
aI51
aI51
aI46
aI49
aI45
aI36
aI56
aI2
aI44
aI40
aI38
aI39
aI51
aI2
aI45
aI46
aI51
aI2
aI46
aI45
aI43
aI56
aI2
aI37
aI49
aI36
aI36
aI43
aI56
aI2
aI32
aI35
aI44
aI40
aI51
aI2
aI51
aI46
aI2
aI32
aI43
aI43
aI2
aI51
aI39
aI36
aI50
aI36
aI2
aI39
aI36
aI40
aI45
aa(lp48
I40
aI2
aI54
aI32
aI50
aI2
aI54
aI46
aI49
aI42
aI40
aI45
aI38
aI2
aI37
aI46
aI49
aI2
aI47
aI43
aI32
aI56
aI33
aI46
aI56
aI15
aI2
aI32
aI43
aI43
aI2
aI51
aI39
aI36
aI56
aI2
aI42
aI45
aI36
aI54
aI13
aI2
aI37
aI46
aI49
aI2
aI50
aI52
aI49
aI36
aI13
aI2
aI54
aI32
aI50
aI2
aI51
aI39
aI32
aI51
aI2
aI51
aI39
aI36
aI49
aI36
aI2
aI54
aI32
aI50
aI2
aI50
aI46
aI44
aI36
aI51
aI39
aI40
aI45
aI38
aI2
aI53
aI36
aI49
aI56
aI2
aI50
aI51
aI49
aI32
aI45
aI38
aI36
aI2
aI32
aI45
aI35
aI2
aI46
aI37
aa(lp49
I36
aI2
aI33
aI32
aI43
aI34
aI46
aI45
aI56
aI15
aI2
aI4
aI51
aI39
aI40
aI50
aI2
aI40
aI50
aI2
aI50
aI52
aI47
aI36
aI49
aI2
aI50
aI52
aI45
aI35
aI32
aI56
aI3
aI4
aI2
aI40
aI2
aI50
aI34
aI49
aI36
aI32
aI44
aI36
aI35
aI15
aI2
aI4
aI40
aI2
aI54
aI32
aI45
aI51
aI2
aI36
aI53
aI36
aI49
aI56
aI2
aI46
aI45
aI36
aI2
aI46
aI37
aI2
aI56
aI46
aI52
aI2
aI54
aI46
aI49
aI51
aI39
aI43
aI36
aI50
aI50
aI2
aI33
aI32
aI50
aI51
aI32
aI49
aI35
aI50
aI2
aI35
aI46
aI54
aI45
aI2
aI40
aI45
aI2
aI51
aa(lp50
I40
aI35
aI2
aI45
aI46
aI51
aI39
aI40
aI45
aI38
aI27
aI2
aI44
aI36
aI49
aI36
aI43
aI56
aI2
aI38
aI49
aI32
aI33
aI33
aI36
aI35
aI2
aI44
aI56
aI2
aI32
aI49
aI44
aI2
aI32
aI45
aI35
aI2
aI33
aI36
aI38
aI32
aI45
aI2
aI50
aI52
aI34
aI42
aI40
aI45
aI38
aI2
aI46
aI45
aI2
aI40
aI51
aI15
aI2
aI32
aI2
aI53
aI36
aI49
aI56
aI2
aI38
aI49
aI46
aI50
aI50
aI2
aI51
aI32
aI33
aI43
aI36
aI32
aI52
aI15
aI2
aI40
aI2
aI54
aI46
aI45
aI35
aI36
aI49
aI36
aI35
aI2
aI54
aI39
aI32
aI51
aI2
aI54
aI46
aI52
aa(lp51
I38
aI2
aI50
aI51
aI49
aI32
aI40
aI38
aI39
aI51
aI2
aI32
aI39
aI36
aI32
aI35
aI15
aI2
aI39
aI36
aI2
aI50
aI36
aI36
aI44
aI36
aI35
aI2
aI51
aI46
aI2
aI33
aI36
aI2
aI38
aI36
aI51
aI51
aI40
aI45
aI38
aI2
aI32
aI2
aI43
aI40
aI51
aI51
aI43
aI36
aI2
aI45
aI52
aI44
aI33
aI2
aI32
aI45
aI35
aI2
aI40
aI2
aI51
aI49
aI40
aI36
aI35
aI2
aI51
aI46
aI2
aI34
aI39
aI36
aI36
aI49
aI2
aI39
aI40
aI44
aI2
aI52
aI47
aI2
aI33
aI56
aI2
aI40
aI45
aI53
aI40
aI51
aI40
aI45
aI38
aI2
aI39
aI40
aI44
aI2
aa(lp52
I32
aI51
aI51
aI32
aI45
aI13
aI2
aI32
aI2
aI44
aI32
aI38
aI45
aI36
aI51
aI2
aI37
aI46
aI49
aI2
aI40
aI45
aI51
aI36
aI43
aI43
aI36
aI34
aI51
aI52
aI32
aI43
aI2
aI51
aI49
aI32
aI45
aI50
aI40
aI36
aI45
aI51
aI50
aI15
aI2
aI46
aI32
aI42
aI43
aI32
aI45
aI35
aI2
aI40
aI50
aI2
aI32
aI2
aI44
aI32
aI38
aI45
aI36
aI51
aI2
aI37
aI46
aI49
aI2
aI47
aI36
aI46
aI47
aI43
aI36
aI2
aI54
aI39
aI46
aI2
aI54
aI32
aI45
aI51
aI2
aI39
aI46
aI52
aI49
aI14
aI54
aI32
aI38
aI36
aI2
aI41
aI46
aI33
aI50
aI2
aa(lp53
I54
aI45
aI2
aI51
aI46
aI35
aI32
aI56
aI29
aI4
aI1
aI39
aI36
aI2
aI43
aI46
aI46
aI42
aI36
aI35
aI2
aI47
aI52
aI57
aI57
aI43
aI36
aI35
aI2
aI37
aI46
aI49
aI2
aI32
aI2
aI44
aI46
aI44
aI36
aI45
aI51
aI13
aI2
aI51
aI39
aI36
aI45
aI2
aI39
aI40
aI50
aI2
aI37
aI32
aI34
aI36
aI2
aI34
aI49
aI32
aI34
aI42
aI36
aI35
aI2
aI40
aI45
aI51
aI46
aI2
aI32
aI2
aI38
aI49
aI40
aI45
aI15
aI2
aI4
aI56
aI46
aI52
aI9
aI49
aI36
aI2
aI49
aI40
aI38
aI39
aI51
aI13
aI2
aI33
aI56
aI2
aI38
aI46
aI35
aI3
aa(lp54
I45
aI38
aI36
aI2
aI46
aI37
aI2
aI51
aI39
aI36
aI2
aI33
aI36
aI53
aI36
aI49
aI43
aI56
aI2
aI39
aI40
aI43
aI43
aI50
aI2
aI39
aI46
aI51
aI36
aI43
aI2
aI14
aI14
aI2
aI40
aI45
aI2
aI51
aI39
aI36
aI2
aI47
aI32
aI51
aI40
aI46
aI2
aI50
aI36
aI34
aI51
aI40
aI46
aI45
aI13
aI2
aI46
aI37
aI2
aI34
aI46
aI52
aI49
aI50
aI36
aI2
aI14
aI14
aI2
aI32
aI45
aI35
aI2
aI54
aI36
aI2
aI54
aI36
aI49
aI36
aI2
aI41
aI52
aI50
aI51
aI2
aI50
aI40
aI51
aI51
aI40
aI45
aI38
aI2
aI51
aI39
aI36
aI49
aI36
aI2
aa(lp55
I40
aI49
aI2
aI44
aI32
aI35
aI36
aI2
aI39
aI40
aI44
aI2
aI50
aI36
aI36
aI44
aI2
aI51
aI46
aI2
aI33
aI36
aI15
aI2
aI51
aI39
aI36
aI56
aI2
aI34
aI46
aI52
aI43
aI35
aI45
aI51
aI2
aI37
aI40
aI38
aI52
aI49
aI36
aI2
aI46
aI52
aI51
aI2
aI51
aI39
aI36
aI49
aI36
aI2
aI54
aI32
aI50
aI2
aI45
aI46
aI51
aI39
aI40
aI45
aI38
aI2
aI51
aI39
aI36
aI56
aI2
aI34
aI46
aI52
aI43
aI35
aI2
aI35
aI46
aI2
aI45
aI46
aI2
aI40
aI50
aI50
aI52
aI36
aI2
aI51
aI39
aI36
aI56
aI2
aI34
aI46
aI52
aI43
aI35
aI2
aa(lp56
I51
aI39
aI36
aI2
aI50
aI51
aI46
aI49
aI40
aI36
aI50
aI2
aI46
aI37
aI2
aI53
aI40
aI46
aI43
aI36
aI45
aI34
aI36
aI2
aI40
aI45
aI2
aI46
aI51
aI39
aI36
aI49
aI2
aI34
aI40
aI51
aI40
aI51
aI36
aI50
aI2
aI50
aI39
aI46
aI52
aI43
aI35
aI2
aI44
aI32
aI42
aI36
aI2
aI52
aI50
aI2
aI47
aI49
aI46
aI52
aI35
aI2
aI51
aI46
aI2
aI43
aI40
aI53
aI36
aI2
aI40
aI45
aI2
aI43
aI46
aI52
aI40
aI50
aI53
aI40
aI43
aI43
aI36
aI15
aI2
aI54
aI36
aI2
aI36
aI45
aI41
aI46
aI56
aI2
aI45
aI32
aI51
aI40
aI46
aI45
aa(lp57
I36
aI2
aI44
aI46
aI49
aI45
aI40
aI45
aI38
aI2
aI54
aI40
aI51
aI39
aI2
aI32
aI2
aI50
aI51
aI36
aI45
aI34
aI39
aI2
aI46
aI37
aI2
aI37
aI49
aI36
aI50
aI39
aI2
aI38
aI32
aI50
aI46
aI43
aI40
aI45
aI36
aI2
aI46
aI45
aI2
aI39
aI40
aI50
aI2
aI39
aI32
aI45
aI35
aI50
aI2
aI32
aI45
aI35
aI2
aI32
aI2
aI38
aI49
aI36
aI36
aI45
aI2
aI34
aI49
aI52
aI50
aI51
aI2
aI46
aI37
aI2
aI34
aI39
aI32
aI49
aI49
aI36
aI35
aI2
aI50
aI46
aI32
aI47
aI14
aI37
aI43
aI32
aI42
aI36
aI50
aI2
aI46
aI45
aI2
aI51
aa(lp58
I40
aI34
aI39
aI2
aI54
aI39
aI32
aI51
aI29
aI2
aI54
aI39
aI40
aI34
aI39
aI2
aI40
aI45
aI2
aI51
aI52
aI49
aI45
aI2
aI54
aI46
aI52
aI43
aI35
aI2
aI44
aI32
aI42
aI36
aI2
aI44
aI34
aI38
aI46
aI53
aI36
aI49
aI45
aI2
aI43
aI46
aI46
aI42
aI2
aI38
aI46
aI46
aI35
aI29
aI1
aI1
aI39
aI50
aI51
aI27
aI2
aI56
aI36
aI32
aI39
aI13
aI2
aI40
aI37
aI2
aI36
aI32
aI38
aI43
aI36
aI51
aI46
aI45
aI2
aI39
aI32
aI35
aI2
aI51
aI52
aI49
aI45
aI36
aI35
aI2
aI46
aI52
aI51
aI2
aI40
aI37
aI2
aI51
aI39
aI36
aa(lp59
I51
aI2
aI51
aI32
aI43
aI42
aI13
aI2
aI32
aI51
aI2
aI51
aI39
aI36
aI2
aI51
aI40
aI44
aI36
aI15
aI2
aI40
aI51
aI2
aI50
aI36
aI36
aI44
aI36
aI35
aI2
aI43
aI40
aI42
aI36
aI2
aI51
aI39
aI36
aI2
aI50
aI32
aI44
aI36
aI2
aI42
aI40
aI45
aI35
aI2
aI46
aI37
aI2
aI50
aI43
aI36
aI32
aI57
aI56
aI13
aI2
aI47
aI46
aI54
aI36
aI49
aI14
aI54
aI46
aI49
aI50
aI39
aI40
aI47
aI40
aI45
aI38
aI2
aI33
aI52
aI43
aI43
aI50
aI39
aI40
aI51
aI2
aI56
aI46
aI52
aI9
aI35
aI2
aI36
aI55
aI47
aI36
aI34
aI51
aI2
aa(lp60
I51
aI13
aI2
aI32
aI52
aI38
aI52
aI50
aI51
aI2
aI18
aI19
aI51
aI39
aI13
aI2
aI18
aI26
aI24
aI20
aI1
aI41
aI36
aI50
aI52
aI50
aI15
aI2
aI15
aI2
aI15
aI2
aI50
aI52
aI45
aI35
aI32
aI56
aI2
aI44
aI46
aI49
aI45
aI40
aI45
aI38
aI2
aI40
aI45
aI2
aI54
aI46
aI46
aI35
aI56
aI2
aI34
aI49
aI36
aI36
aI42
aI2
aI32
aI45
aI35
aI2
aI39
aI36
aI49
aI36
aI9
aI50
aI2
aI44
aI34
aI38
aI46
aI53
aI36
aI49
aI45
aI2
aI46
aI45
aI2
aI51
aI39
aI36
aI2
aI44
aI40
aI45
aI40
aI14
aI51
aI52
aI33
aI36
aI2
aI33
aa(lp61
I51
aI36
aI49
aI45
aI46
aI46
aI45
aI15
aI2
aI43
aI32
aI51
aI36
aI49
aI2
aI51
aI39
aI32
aI51
aI2
aI36
aI53
aI36
aI45
aI40
aI45
aI38
aI2
aI54
aI36
aI2
aI54
aI36
aI45
aI51
aI2
aI51
aI46
aI2
aI32
aI45
aI2
aI36
aI43
aI35
aI36
aI49
aI43
aI56
aI2
aI54
aI46
aI44
aI32
aI45
aI50
aI2
aI39
aI46
aI52
aI50
aI36
aI2
aI54
aI39
aI36
aI49
aI36
aI2
aI54
aI36
aI2
aI54
aI36
aI49
aI36
aI2
aI50
aI51
aI32
aI56
aI40
aI45
aI38
aI2
aI54
aI39
aI40
aI43
aI36
aI2
aI54
aI36
aI2
aI54
aI36
aI49
aI36
aI2
aI40
aa(lp62
I52
aI38
aI39
aI2
aI34
aI52
aI50
aI51
aI46
aI44
aI50
aI2
aI14
aI14
aI2
aI36
aI50
aI47
aI36
aI34
aI40
aI32
aI43
aI43
aI56
aI2
aI54
aI39
aI36
aI45
aI2
aI54
aI36
aI2
aI34
aI32
aI45
aI2
aI49
aI36
aI47
aI43
aI32
aI34
aI36
aI2
aI36
aI53
aI36
aI49
aI56
aI51
aI39
aI40
aI45
aI38
aI2
aI54
aI36
aI9
aI49
aI36
aI2
aI39
aI46
aI43
aI35
aI40
aI45
aI38
aI2
aI37
aI46
aI49
aI2
aI32
aI33
aI46
aI52
aI51
aI2
aI45
aI40
aI45
aI36
aI51
aI56
aI14
aI45
aI40
aI45
aI36
aI2
aI35
aI46
aI43
aI43
aI32
aI49
aI50
aa(lp63
I2
aI32
aI51
aI2
aI32
aI43
aI43
aI2
aI51
aI40
aI44
aI36
aI50
aI15
aI2
aI50
aI46
aI2
aI40
aI2
aI54
aI32
aI51
aI34
aI39
aI36
aI35
aI2
aI39
aI40
aI44
aI2
aI37
aI46
aI49
aI2
aI32
aI2
aI54
aI39
aI40
aI43
aI36
aI13
aI2
aI36
aI55
aI47
aI36
aI34
aI51
aI40
aI45
aI38
aI2
aI51
aI46
aI2
aI50
aI36
aI36
aI2
aI39
aI40
aI50
aI2
aI32
aI40
aI35
aI36
aI50
aI2
aI37
aI43
aI46
aI34
aI42
aI40
aI45
aI38
aI2
aI40
aI45
aI2
aI37
aI49
aI46
aI44
aI2
aI51
aI39
aI36
aI2
aI43
aI46
aI33
aI33
aI56
aI2
aI32
aa(lp64
I46
aI51
aI2
aI51
aI39
aI36
aI2
aI50
aI43
aI40
aI38
aI39
aI51
aI36
aI50
aI51
aI2
aI49
aI36
aI43
aI52
aI34
aI51
aI32
aI45
aI34
aI36
aI2
aI51
aI46
aI2
aI51
aI36
aI43
aI43
aI2
aI54
aI32
aI43
aI51
aI36
aI49
aI2
aI34
aI49
aI46
aI45
aI42
aI40
aI51
aI36
aI13
aI2
aI41
aI46
aI39
aI45
aI2
aI34
aI39
aI32
aI45
aI34
aI36
aI43
aI43
aI46
aI49
aI2
aI32
aI45
aI35
aI2
aI32
aI45
aI56
aI46
aI45
aI36
aI2
aI36
aI43
aI50
aI36
aI2
aI54
aI39
aI46
aI2
aI32
aI50
aI42
aI50
aI2
aI51
aI39
aI32
aI51
aI2
aI4
aa(lp65
I44
aI36
aI2
aI51
aI39
aI49
aI36
aI36
aI2
aI54
aI36
aI36
aI42
aI50
aI2
aI32
aI38
aI46
aI2
aI40
aI45
aI2
aI43
aI32
aI50
aI2
aI53
aI36
aI38
aI32
aI50
aI13
aI2
aI54
aI39
aI36
aI45
aI2
aI39
aI36
aI9
aI35
aI2
aI33
aI36
aI36
aI45
aI2
aI37
aI46
aI49
aI34
aI36
aI35
aI2
aI51
aI46
aI2
aI50
aI40
aI51
aI2
aI47
aI32
aI50
aI50
aI40
aI53
aI36
aI43
aI56
aI2
aI32
aI51
aI2
aI49
aI40
aI45
aI38
aI50
aI40
aI35
aI36
aI2
aI32
aI45
aI35
aI2
aI54
aI32
aI51
aI34
aI39
aI2
aI51
aI39
aI36
aI2
aI44
aI32
aa(lp66
I49
aI36
aI43
aI32
aI51
aI40
aI46
aI45
aI50
aI2
aI34
aI46
aI44
aI44
aI40
aI50
aI50
aI40
aI46
aI45
aI13
aI2
aI46
aI45
aI36
aI2
aI46
aI37
aI2
aI51
aI39
aI36
aI2
aI37
aI40
aI49
aI50
aI51
aI2
aI46
aI37
aI2
aI40
aI51
aI50
aI2
aI42
aI40
aI45
aI35
aI2
aI40
aI45
aI2
aI51
aI39
aI36
aI2
aI45
aI32
aI51
aI40
aI46
aI45
aI13
aI2
aI32
aI38
aI49
aI36
aI36
aI50
aI2
aI51
aI39
aI32
aI51
aI2
aI32
aI43
aI51
aI39
aI46
aI52
aI38
aI39
aI2
aI51
aI39
aI36
aI2
aI34
aI40
aI51
aI56
aI2
aI39
aI32
aI50
aI2
aa(lp67
I53
aI36
aI45
aI2
aI39
aI40
aI50
aI2
aI49
aI32
aI45
aI42
aI40
aI45
aI38
aI2
aI50
aI51
aI32
aI37
aI37
aI36
aI49
aI50
aI2
aI54
aI36
aI49
aI36
aI2
aI44
aI52
aI51
aI51
aI36
aI49
aI40
aI45
aI38
aI2
aI32
aI33
aI46
aI52
aI51
aI2
aI39
aI40
aI50
aI2
aI35
aI32
aI45
aI38
aI36
aI49
aI46
aI52
aI50
aI43
aI56
aI2
aI40
aI49
aI49
aI32
aI51
aI40
aI46
aI45
aI32
aI43
aI2
aI50
aI51
aI32
aI51
aI36
aI2
aI46
aI37
aI2
aI44
aI40
aI45
aI35
aI2
aI51
aI46
aI54
aI32
aI49
aI35
aI2
aI51
aI39
aI36
aI2
aI36
aI45
aa(lp68
I2
aI51
aI46
aI51
aI32
aI43
aI2
aI46
aI37
aI2
aI23
aI22
aI2
aI35
aI36
aI32
aI35
aI43
aI40
aI45
aI36
aI2
aI45
aI46
aI51
aI40
aI34
aI36
aI50
aI2
aI51
aI46
aI2
aI49
aI36
aI47
aI32
aI40
aI49
aI2
aI50
aI32
aI45
aI40
aI51
aI32
aI51
aI40
aI46
aI45
aI2
aI37
aI32
aI52
aI43
aI51
aI50
aI15
aI2
aI33
aI52
aI51
aI2
aI46
aI45
aI43
aI56
aI2
aI18
aI23
aI2
aI46
aI37
aI2
aI51
aI39
aI36
aI2
aI23
aI22
aI2
aI45
aI46
aI51
aI40
aI34
aI36
aI50
aI13
aI2
aI32
aI34
aI34
aI46
aI49
aI35
aI40
aI45
aI38
aI2
aa(lp69
I50
aI2
aI32
aI43
aI49
aI36
aI32
aI35
aI56
aI2
aI34
aI39
aI32
aI49
aI51
aI36
aI49
aI36
aI35
aI2
aI32
aI45
aI35
aI2
aI49
aI36
aI32
aI35
aI56
aI2
aI51
aI46
aI2
aI38
aI46
aI2
aI54
aI39
aI36
aI45
aI2
aI44
aI34
aI38
aI46
aI53
aI36
aI49
aI45
aI9
aI50
aI2
aI39
aI36
aI32
aI35
aI48
aI52
aI32
aI49
aI51
aI36
aI49
aI50
aI2
aI38
aI46
aI51
aI2
aI54
aI46
aI49
aI35
aI2
aI46
aI37
aI2
aI51
aI39
aI36
aI2
aI37
aI43
aI40
aI38
aI39
aI51
aI2
aI37
aI49
aI46
aI44
aI2
aI51
aI39
aI36
aI40
aI49
aI2
aI36
aa(lp70
I2
aI45
aI46
aI54
aI2
aI54
aI46
aI49
aI49
aI40
aI36
aI35
aI2
aI32
aI33
aI46
aI52
aI51
aI2
aI37
aI40
aI49
aI36
aI15
aI2
aI50
aI46
aI44
aI36
aI33
aI46
aI35
aI56
aI2
aI51
aI46
aI43
aI35
aI2
aI39
aI40
aI44
aI2
aI32
aI33
aI46
aI52
aI51
aI2
aI51
aI39
aI36
aI2
aI34
aI43
aI52
aI33
aI39
aI46
aI52
aI50
aI36
aI2
aI34
aI32
aI51
aI34
aI39
aI40
aI45
aI38
aI2
aI46
aI45
aI2
aI37
aI40
aI49
aI36
aI2
aI51
aI54
aI46
aI2
aI56
aI36
aI32
aI49
aI50
aI2
aI32
aI38
aI46
aI15
aI2
aI34
aI46
aI52
aI43
aI35
aa(lp71
I36
aI2
aI46
aI37
aI2
aI51
aI46
aI54
aI45
aI13
aI2
aI49
aI36
aI34
aI32
aI43
aI43
aI50
aI2
aI51
aI36
aI49
aI49
aI56
aI13
aI2
aI51
aI39
aI49
aI46
aI52
aI38
aI39
aI2
aI51
aI39
aI36
aI2
aI51
aI49
aI32
aI37
aI37
aI40
aI34
aI2
aI32
aI45
aI35
aI2
aI36
aI53
aI36
aI49
aI56
aI51
aI39
aI40
aI45
aI38
aI15
aI2
aI44
aI46
aI50
aI51
aI2
aI46
aI37
aI2
aI51
aI39
aI36
aI2
aI38
aI52
aI56
aI50
aI2
aI42
aI45
aI36
aI54
aI2
aI45
aI40
aI34
aI42
aI50
aI13
aI2
aI33
aI52
aI51
aI2
aI45
aI46
aI51
aI2
aI44
aa(lp72
I2
aI32
aI33
aI46
aI52
aI51
aI2
aI43
aI50
aI35
aI15
aI1
aI1
aI40
aI2
aI47
aI32
aI49
aI42
aI36
aI35
aI2
aI46
aI45
aI2
aI51
aI39
aI36
aI2
aI49
aI46
aI32
aI35
aI2
aI32
aI45
aI35
aI2
aI43
aI52
aI44
aI33
aI36
aI49
aI36
aI35
aI2
aI52
aI47
aI2
aI39
aI40
aI50
aI2
aI38
aI49
aI32
aI53
aI36
aI43
aI2
aI35
aI49
aI40
aI53
aI36
aI54
aI32
aI56
aI13
aI2
aI47
aI32
aI52
aI50
aI40
aI45
aI38
aI2
aI36
aI45
aI49
aI46
aI52
aI51
aI36
aI2
aI51
aI46
aI2
aI54
aI32
aI53
aI36
aI2
aI47
aI43
aI36
aI32
aI50
aa(lp73
I54
aI36
aI2
aI44
aI40
aI38
aI39
aI51
aI2
aI47
aI52
aI43
aI43
aI2
aI40
aI51
aI2
aI46
aI37
aI37
aI15
aI2
aI33
aI52
aI51
aI2
aI51
aI46
aI38
aI36
aI51
aI39
aI36
aI49
aI13
aI2
aI45
aI46
aI2
aI2
aI54
aI36
aI2
aI54
aI46
aI52
aI43
aI35
aI2
aI33
aI43
aI46
aI54
aI2
aI40
aI51
aI15
aI2
aI51
aI46
aI46
aI2
aI44
aI52
aI34
aI39
aI2
aI32
aI38
aI38
aI49
aI36
aI50
aI50
aI40
aI53
aI36
aI2
aI34
aI39
aI36
aI44
aI40
aI50
aI51
aI49
aI56
aI2
aI40
aI45
aI2
aI51
aI39
aI32
aI51
aI2
aI44
aI40
aI55
aI28
aa(lp74
I44
aI46
aI45
aI36
aI56
aI2
aI32
aI45
aI35
aI2
aI37
aI40
aI38
aI39
aI51
aI40
aI45
aI38
aI2
aI51
aI46
aI2
aI50
aI51
aI46
aI46
aI47
aI2
aI46
aI53
aI36
aI49
aI2
aI32
aI45
aI35
aI2
aI47
aI40
aI34
aI42
aI2
aI40
aI51
aI2
aI52
aI47
aI15
aI1
aI1
aI39
aI36
aI2
aI43
aI46
aI46
aI42
aI36
aI35
aI2
aI50
aI46
aI2
aI45
aI36
aI49
aI53
aI46
aI52
aI50
aI2
aI51
aI39
aI32
aI51
aI2
aI40
aI2
aI43
aI32
aI52
aI38
aI39
aI36
aI35
aI15
aI2
aI40
aI44
aI2
aI41
aI52
aI50
aI51
aI2
aI42
aI40
aI35
aI35
aI40
aa(lp75
I39
aI40
aI45
aI38
aI2
aI36
aI43
aI50
aI36
aI2
aI51
aI46
aI2
aI44
aI32
aI51
aI34
aI39
aI2
aI51
aI39
aI46
aI50
aI36
aI2
aI47
aI36
aI32
aI42
aI50
aI2
aI39
aI36
aI2
aI39
aI32
aI50
aI2
aI32
aI43
aI49
aI36
aI32
aI35
aI56
aI2
aI33
aI36
aI32
aI51
aI36
aI45
aI15
aI2
aI45
aI46
aI54
aI2
aI40
aI51
aI2
aI40
aI50
aI2
aI32
aI43
aI43
aI2
aI35
aI46
aI54
aI45
aI39
aI40
aI43
aI43
aI2
aI37
aI46
aI49
aI2
aI51
aI39
aI36
aI2
aI54
aI46
aI49
aI43
aI35
aI9
aI50
aI2
aI49
aI40
aI34
aI39
aI36
aI50
aI51
aa(lp76
I35
aI49
aI40
aI53
aI40
aI45
aI38
aI13
aI2
aI33
aI32
aI35
aI2
aI37
aI46
aI46
aI35
aI13
aI2
aI47
aI49
aI40
aI44
aI40
aI51
aI40
aI53
aI36
aI2
aI43
aI40
aI53
aI40
aI45
aI38
aI13
aI2
aI32
aI45
aI35
aI2
aI35
aI56
aI50
aI36
aI45
aI51
aI36
aI49
aI56
aI15
aI1
aI33
aI52
aI51
aI2
aI51
aI39
aI36
aI2
aI47
aI36
aI46
aI47
aI43
aI36
aI2
aI39
aI36
aI2
aI39
aI32
aI50
aI2
aI51
aI46
aI2
aI54
aI46
aI49
aI42
aI2
aI54
aI40
aI51
aI39
aI2
aI33
aI46
aI51
aI39
aI36
aI49
aI2
aI39
aI40
aI44
aI15
aI2
aI39
aa(lp77
I53
aI36
aI45
aI40
aI49
aI50
aI2
aI46
aI37
aI2
aI43
aI32
aI50
aI2
aI53
aI36
aI38
aI32
aI50
aI13
aI2
aI47
aI43
aI32
aI50
aI51
aI40
aI34
aI2
aI37
aI32
aI42
aI36
aI14
aI57
aI40
aI47
aI47
aI46
aI14
aI43
aI40
aI38
aI39
aI51
aI36
aI49
aI50
aI2
aI54
aI40
aI51
aI39
aI2
aI32
aI2
aI33
aI52
aI40
aI43
aI51
aI14
aI40
aI45
aI2
aI49
aI46
aI52
aI43
aI36
aI51
aI51
aI36
aI2
aI54
aI39
aI36
aI36
aI43
aI2
aI37
aI46
aI49
aI2
aI6
aI23
aI15
aI26
aI22
aI13
aI2
aI41
aI37
aI42
aI2
aI39
aI32
aI43
aI37
aI14
aa(lp78
I43
aI40
aI45
aI38
aI2
aI51
aI39
aI36
aI2
aI45
aI46
aI51
aI40
aI46
aI45
aI2
aI51
aI39
aI32
aI51
aI2
aI39
aI36
aI2
aI54
aI46
aI52
aI43
aI35
aI2
aI36
aI53
aI36
aI49
aI2
aI38
aI36
aI51
aI2
aI49
aI40
aI35
aI2
aI46
aI37
aI2
aI41
aI40
aI44
aI2
aI42
aI40
aI40
aI34
aI42
aI13
aI2
aI35
aI36
aI50
aI47
aI40
aI51
aI36
aI2
aI42
aI40
aI40
aI34
aI42
aI9
aI50
aI2
aI46
aI33
aI53
aI40
aI46
aI52
aI50
aI2
aI52
aI45
aI39
aI32
aI47
aI47
aI40
aI45
aI36
aI50
aI50
aI2
aI32
aI51
aI2
aI51
aI39
aI36
aI2
aa(lp79
I45
aI38
aI2
aI50
aI43
aI46
aI46
aI47
aI2
aI37
aI49
aI46
aI44
aI2
aI32
aI49
aI52
aI33
aI32
aI15
aI2
aI32
aI45
aI35
aI2
aI50
aI40
aI45
aI34
aI36
aI2
aI51
aI39
aI36
aI49
aI36
aI2
aI40
aI50
aI2
aI45
aI46
aI2
aI39
aI32
aI49
aI33
aI46
aI49
aI2
aI40
aI2
aI54
aI32
aI50
aI2
aI47
aI52
aI51
aI2
aI32
aI50
aI39
aI46
aI49
aI36
aI2
aI40
aI45
aI2
aI32
aI2
aI51
aI40
aI45
aI56
aI2
aI49
aI46
aI54
aI33
aI46
aI32
aI51
aI15
aI2
aI32
aI33
aI46
aI53
aI36
aI2
aI52
aI50
aI13
aI2
aI46
aI45
aI2
aI32
aa(lp80
I13
aI2
aI38
aI49
aI40
aI44
aI36
aI2
aI32
aI45
aI35
aI2
aI33
aI43
aI46
aI46
aI35
aI15
aI2
aI51
aI39
aI36
aI2
aI35
aI40
aI50
aI47
aI32
aI51
aI34
aI39
aI36
aI49
aI2
aI50
aI51
aI40
aI43
aI43
aI2
aI49
aI32
aI38
aI36
aI50
aI2
aI46
aI53
aI36
aI49
aI2
aI39
aI40
aI50
aI2
aI44
aI40
aI42
aI36
aI28
aI2
aI51
aI39
aI36
aI2
aI35
aI52
aI51
aI56
aI2
aI46
aI37
aI37
aI40
aI34
aI36
aI49
aI9
aI50
aI2
aI53
aI46
aI40
aI34
aI36
aI2
aI34
aI49
aI32
aI34
aI42
aI50
aI2
aI32
aI50
aI2
aI39
aI36
aI2
aI32
aa(lp81
I50
aI2
aI45
aI46
aI2
aI34
aI46
aI45
aI50
aI40
aI35
aI36
aI49
aI32
aI51
aI40
aI46
aI45
aI2
aI37
aI49
aI46
aI44
aI2
aI51
aI39
aI36
aI44
aI2
aI52
aI45
aI43
aI36
aI50
aI50
aI2
aI51
aI39
aI36
aI56
aI2
aI34
aI32
aI45
aI2
aI34
aI46
aI49
aI49
aI46
aI33
aI46
aI49
aI32
aI51
aI36
aI2
aI39
aI32
aI43
aI35
aI36
aI44
aI32
aI45
aI2
aI32
aI45
aI35
aI2
aI44
aI56
aI2
aI43
aI40
aI32
aI33
aI40
aI43
aI40
aI51
aI56
aI15
aI1
aI42
aI27
aI2
aI38
aI46
aI35
aI13
aI2
aI40
aI37
aI2
aI40
aI2
aI34
aI32
aI45
aa(lp82
I39
aI36
aI2
aI37
aI40
aI45
aI40
aI50
aI39
aI2
aI43
aI40
aI45
aI36
aI13
aI2
aI34
aI46
aI43
aI46
aI49
aI2
aI51
aI53
aI2
aI32
aI45
aI35
aI2
aI32
aI2
aI37
aI49
aI36
aI36
aI2
aI33
aI32
aI49
aI2
aI40
aI45
aI2
aI51
aI39
aI36
aI2
aI47
aI49
aI36
aI50
aI50
aI2
aI49
aI46
aI46
aI44
aI13
aI2
aI32
aI45
aI35
aI2
aI32
aI2
aI50
aI36
aI43
aI36
aI34
aI51
aI40
aI46
aI45
aI2
aI46
aI37
aI2
aI47
aI32
aI50
aI50
aI36
aI50
aI2
aI51
aI39
aI32
aI51
aI2
aI54
aI46
aI52
aI43
aI35
aI2
aI51
aI32
aI42
aI36
aa(lp83
I2
aI46
aI45
aI2
aI54
aI40
aI43
aI43
aI40
aI51
aI50
aI2
aI44
aI32
aI40
aI45
aI2
aI50
aI51
aI49
aI36
aI36
aI51
aI13
aI2
aI51
aI39
aI36
aI2
aI39
aI36
aI43
aI43
aI50
aI2
aI32
aI45
aI38
aI36
aI43
aI50
aI2
aI54
aI36
aI49
aI36
aI2
aI43
aI40
aI45
aI36
aI35
aI2
aI52
aI47
aI2
aI37
aI46
aI49
aI2
aI32
aI2
aI33
aI43
aI46
aI34
aI42
aI2
aI32
aI45
aI35
aI2
aI32
aI2
aI39
aI32
aI43
aI37
aI13
aI2
aI34
aI46
aI44
aI40
aI45
aI38
aI2
aI40
aI45
aI2
aI32
aI45
aI35
aI2
aI46
aI52
aI51
aI2
aI46
aI37
aa(lp84
I46
aI49
aI2
aI51
aI39
aI36
aI2
aI36
aI32
aI38
aI43
aI36
aI51
aI46
aI45
aI2
aI32
aI37
aI37
aI32
aI40
aI49
aI13
aI2
aI45
aI40
aI55
aI46
aI45
aI2
aI54
aI32
aI50
aI2
aI32
aI34
aI51
aI52
aI32
aI43
aI43
aI56
aI2
aI50
aI51
aI36
aI32
aI35
aI40
aI43
aI56
aI2
aI43
aI46
aI50
aI40
aI45
aI38
aI13
aI2
aI32
aI45
aI35
aI2
aI44
aI34
aI38
aI46
aI53
aI36
aI49
aI45
aI2
aI54
aI32
aI50
aI2
aI50
aI43
aI46
aI54
aI43
aI56
aI2
aI33
aI52
aI51
aI2
aI50
aI52
aI49
aI36
aI43
aI56
aI2
aI47
aI40
aI34
aI42
aI40
aa(lp85
I45
aI46
aI51
aI36
aI2
aI40
aI50
aI2
aI51
aI39
aI36
aI2
aI32
aI51
aI51
aI40
aI51
aI52
aI35
aI36
aI2
aI46
aI37
aI2
aI32
aI2
aI43
aI46
aI51
aI2
aI46
aI37
aI2
aI32
aI44
aI36
aI49
aI40
aI34
aI32
aI45
aI2
aI33
aI52
aI50
aI40
aI45
aI36
aI50
aI50
aI44
aI36
aI45
aI2
aI40
aI2
aI39
aI32
aI53
aI36
aI2
aI51
aI32
aI43
aI42
aI36
aI35
aI2
aI51
aI46
aI2
aI14
aI14
aI2
aI4
aI50
aI52
aI49
aI36
aI13
aI2
aI54
aI36
aI9
aI35
aI2
aI43
aI40
aI42
aI36
aI2
aI51
aI46
aI2
aI39
aI36
aI43
aI47
aI13
aI2
aa(lp86
I43
aI43
aI46
aI54
aI50
aI39
aI40
aI47
aI2
aI32
aI45
aI35
aI2
aI50
aI51
aI32
aI51
aI52
aI50
aI15
aI15
aI15
aI2
aI33
aI52
aI51
aI2
aI40
aI45
aI2
aI46
aI45
aI36
aI2
aI34
aI32
aI50
aI36
aI2
aI51
aI39
aI36
aI2
aI32
aI45
aI38
aI36
aI43
aI50
aI2
aI35
aI36
aI40
aI38
aI45
aI36
aI35
aI2
aI51
aI46
aI2
aI32
aI33
aI50
aI46
aI49
aI33
aI2
aI32
aI2
aI54
aI39
aI46
aI43
aI36
aI2
aI34
aI43
aI52
aI33
aI27
aI2
aI51
aI39
aI36
aI2
aI48
aI52
aI36
aI50
aI51
aI40
aI46
aI45
aI2
aI44
aI32
aI49
aI42
aI50
aa(lp87
I51
aI40
aI46
aI45
aI2
aI39
aI46
aI54
aI43
aI40
aI45
aI38
aI2
aI54
aI40
aI51
aI39
aI2
aI49
aI32
aI38
aI36
aI2
aI33
aI36
aI37
aI46
aI49
aI36
aI2
aI45
aI40
aI38
aI39
aI51
aI37
aI32
aI43
aI43
aI15
aI2
aI15
aI2
aI15
aI2
aI33
aI52
aI51
aI2
aI33
aI56
aI2
aI45
aI40
aI38
aI39
aI51
aI37
aI32
aI43
aI43
aI13
aI2
aI37
aI46
aI49
aI35
aI9
aI50
aI2
aI53
aI36
aI49
aI50
aI40
aI46
aI45
aI2
aI46
aI37
aI2
aI51
aI39
aI36
aI2
aI47
aI32
aI49
aI35
aI46
aI45
aI2
aI54
aI32
aI50
aI2
aI50
aI47
aI49
aI36
aa(lp88
I50
aI54
aI40
aI45
aI36
aI2
aI50
aI39
aI46
aI52
aI43
aI35
aI2
aI33
aI36
aI2
aI37
aI52
aI34
aI42
aI36
aI35
aI13
aI2
aI33
aI49
aI46
aI42
aI36
aI45
aI2
aI32
aI45
aI35
aI2
aI35
aI49
aI40
aI53
aI36
aI45
aI2
aI32
aI34
aI49
aI46
aI50
aI50
aI2
aI51
aI39
aI36
aI2
aI43
aI32
aI45
aI35
aI15
aI1
aI20
aI11
aI0
aI35
aI49
aI52
aI38
aI2
aI50
aI32
aI43
aI36
aI50
aI2
aI44
aI52
aI50
aI51
aI2
aI33
aI36
aI2
aI34
aI46
aI45
aI51
aI49
aI46
aI43
aI43
aI36
aI35
aI15
aI2
aI44
aI56
aI2
aI37
aI40
aI49
aI50
aa(lp89
I39
aI36
aI2
aI37
aI40
aI45
aI32
aI43
aI2
aI35
aI49
aI32
aI37
aI51
aI2
aI46
aI37
aI2
aI39
aI40
aI50
aI2
aI44
aI36
aI44
aI46
aI40
aI49
aI50
aI2
aI51
aI46
aI2
aI51
aI39
aI36
aI2
aI47
aI49
aI40
aI45
aI51
aI36
aI49
aI15
aI2
aI51
aI39
aI36
aI2
aI37
aI40
aI45
aI40
aI50
aI39
aI36
aI35
aI2
aI33
aI46
aI46
aI42
aI2
aI54
aI40
aI43
aI43
aI2
aI47
aI49
aI46
aI33
aI32
aI33
aI43
aI56
aI2
aI50
aI36
aI43
aI43
aI2
aI37
aI46
aI49
aI2
aI6
aI18
aI22
aI28
aI2
aI32
aI45
aI35
aI2
aI32
aI2
aI43
aI46
aa(lp90
I39
aI51
aI2
aI54
aI40
aI45
aI38
aI2
aI44
aI46
aI45
aI36
aI56
aI1
aI51
aI39
aI32
aI51
aI2
aI32
aI2
aI34
aI46
aI45
aI50
aI34
aI40
aI46
aI52
aI50
aI2
aI35
aI36
aI32
aI43
aI2
aI39
aI32
aI50
aI2
aI33
aI36
aI36
aI45
aI2
aI44
aI32
aI35
aI36
aI2
aI54
aI40
aI51
aI39
aI2
aI46
aI32
aI42
aI43
aI32
aI45
aI35
aI2
aI47
aI46
aI43
aI40
aI34
aI36
aI1
aI46
aI49
aI2
aI32
aI45
aI2
aI52
aI45
aI34
aI46
aI45
aI50
aI34
aI40
aI46
aI52
aI50
aI2
aI49
aI32
aI47
aI47
aI46
aI49
aI51
aI13
aI2
aI51
aI32
aI34
aa(lp91
I36
aI2
aI50
aI32
aI56
aI50
aI15
aI11
aI1
aI33
aI46
aI51
aI39
aI2
aI49
aI46
aI44
aI45
aI36
aI56
aI2
aI32
aI45
aI35
aI2
aI44
aI34
aI34
aI32
aI49
aI51
aI39
aI56
aI2
aI39
aI32
aI35
aI2
aI51
aI39
aI36
aI40
aI49
aI2
aI44
aI32
aI45
aI34
aI39
aI36
aI50
aI51
aI36
aI49
aI2
aI39
aI36
aI32
aI35
aI48
aI52
aI32
aI49
aI51
aI36
aI49
aI50
aI2
aI32
aI51
aI2
aI51
aI39
aI36
aI2
aI54
aI32
aI56
aI37
aI32
aI49
aI36
aI49
aI13
aI2
aI32
aI45
aI2
aI36
aI43
aI36
aI38
aI32
aI45
aI51
aI13
aI2
aI54
aI46
aI46
aa(lp92
I45
aI38
aI36
aI45
aI51
aI15
aI2
aI50
aI46
aI44
aI36
aI54
aI39
aI36
aI49
aI36
aI2
aI40
aI45
aI2
aI51
aI39
aI36
aI2
aI33
aI32
aI34
aI42
aI2
aI46
aI37
aI2
aI44
aI56
aI2
aI44
aI40
aI45
aI35
aI2
aI40
aI2
aI49
aI36
aI34
aI32
aI43
aI43
aI2
aI50
aI40
aI38
aI45
aI40
aI45
aI38
aI2
aI32
aI2
aI34
aI46
aI45
aI51
aI49
aI32
aI34
aI51
aI2
aI51
aI39
aI32
aI51
aI2
aI50
aI32
aI40
aI35
aI2
aI40
aI2
aI54
aI46
aI52
aI43
aI35
aI2
aI45
aI36
aI53
aI36
aI49
aI2
aI35
aI46
aI2
aI51
aI39
aI40
aI50
aI2
aa(lp93
I32
aI35
aI35
aI36
aI56
aI46
aI52
aI2
aI44
aI36
aI32
aI45
aI2
aI33
aI56
aI2
aI51
aI39
aI32
aI51
aI2
aI54
aI46
aI49
aI35
aI2
aI49
aI40
aI38
aI39
aI51
aI29
aI2
aI51
aI39
aI36
aI2
aI46
aI45
aI43
aI56
aI2
aI51
aI39
aI40
aI45
aI38
aI2
aI54
aI36
aI49
aI36
aI2
aI34
aI46
aI45
aI34
aI36
aI49
aI45
aI36
aI35
aI2
aI32
aI33
aI46
aI52
aI51
aI2
aI40
aI50
aI2
aI54
aI39
aI32
aI51
aI50
aI2
aI49
aI40
aI38
aI39
aI51
aI2
aI37
aI46
aI49
aI2
aI52
aI50
aI15
aI2
aI54
aI36
aI2
aI38
aI46
aI51
aI2
aI46
aa(lp94
I37
aI37
aI40
aI34
aI36
aI49
aI50
aI2
aI51
aI39
aI32
aI51
aI2
aI33
aI36
aI34
aI32
aI52
aI50
aI36
aI2
aI46
aI37
aI2
aI39
aI40
aI50
aI2
aI37
aI36
aI32
aI49
aI2
aI46
aI37
aI2
aI49
aI36
aI51
aI32
aI43
aI40
aI32
aI51
aI40
aI46
aI45
aI2
aI33
aI56
aI2
aI34
aI43
aI52
aI33
aI2
aI44
aI36
aI44
aI33
aI36
aI49
aI50
aI2
aI39
aI36
aI2
aI54
aI46
aI52
aI43
aI35
aI2
aI49
aI36
aI37
aI52
aI50
aI36
aI2
aI51
aI46
aI2
aI51
aI36
aI50
aI51
aI40
aI37
aI56
aI2
aI51
aI46
aI2
aI51
aI39
aI36
aI2
aI37
aI32
aa(lp95
I36
aI2
aI8
aI2
aI33
aI32
aI50
aI40
aI34
aI32
aI43
aI43
aI56
aI2
aI47
aI36
aI49
aI53
aI36
aI49
aI50
aI36
aI2
aI32
aI50
aI2
aI54
aI39
aI32
aI51
aI36
aI53
aI36
aI49
aI2
aI40
aI45
aI50
aI51
aI40
aI45
aI34
aI51
aI2
aI40
aI51
aI2
aI40
aI50
aI2
aI51
aI39
aI32
aI51
aI2
aI34
aI32
aI52
aI50
aI36
aI50
aI2
aI32
aI2
aI41
aI32
aI34
aI42
aI49
aI32
aI33
aI33
aI40
aI51
aI2
aI51
aI46
aI2
aI54
aI32
aI40
aI51
aI2
aI52
aI45
aI51
aI40
aI43
aI2
aI51
aI39
aI36
aI2
aI43
aI32
aI50
aI51
aI2
aI47
aI46
aa(lp96
I35
aI2
aI41
aI52
aI49
aI56
aI2
aI14
aI14
aI2
aI39
aI32
aI35
aI2
aI33
aI36
aI36
aI45
aI2
aI32
aI33
aI43
aI36
aI2
aI51
aI46
aI2
aI38
aI36
aI51
aI2
aI32
aI2
aI38
aI49
aI40
aI47
aI2
aI46
aI45
aI2
aI39
aI40
aI44
aI50
aI36
aI43
aI37
aI2
aI43
aI46
aI45
aI38
aI2
aI36
aI45
aI46
aI52
aI38
aI39
aI2
aI51
aI46
aI2
aI35
aI36
aI34
aI40
aI35
aI36
aI2
aI51
aI39
aI32
aI51
aI2
aI39
aI36
aI2
aI54
aI46
aI52
aI43
aI35
aI2
aI45
aI46
aI51
aI2
aI33
aI36
aI2
aI46
aI37
aI37
aI36
aI45
aI35
aI36
aI35
aa(lp97
I44
aI32
aI42
aI36
aI2
aI46
aI37
aI2
aI56
aI46
aI52
aI49
aI2
aI33
aI43
aI40
aI45
aI42
aI36
aI49
aI14
aI50
aI40
aI38
aI45
aI32
aI43
aI2
aI51
aI39
aI32
aI51
aI2
aI50
aI32
aI56
aI50
aI2
aI56
aI46
aI52
aI49
aI36
aI2
aI32
aI33
aI46
aI52
aI51
aI2
aI51
aI46
aI2
aI51
aI52
aI49
aI45
aI2
aI49
aI40
aI38
aI39
aI51
aI15
aI1
aI1
aI51
aI39
aI40
aI50
aI2
aI40
aI50
aI2
aI51
aI46
aI2
aI43
aI36
aI51
aI2
aI39
aI40
aI44
aI2
aI42
aI45
aI46
aI54
aI2
aI56
aI46
aI52
aI49
aI36
aI2
aI43
aI46
aI46
aI42
aa(lp98
I46
aI46
aI57
aI36
aI2
aI32
aI45
aI35
aI2
aI49
aI36
aI50
aI36
aI45
aI51
aI44
aI36
aI45
aI51
aI2
aI32
aI51
aI2
aI32
aI2
aI49
aI52
aI44
aI46
aI49
aI2
aI51
aI39
aI32
aI51
aI2
aI32
aI2
aI38
aI32
aI38
aI38
aI43
aI36
aI2
aI46
aI37
aI2
aI43
aI46
aI34
aI32
aI43
aI2
aI47
aI46
aI54
aI36
aI49
aI44
aI46
aI45
aI38
aI36
aI49
aI50
aI2
aI39
aI32
aI35
aI2
aI32
aI43
aI49
aI36
aI32
aI35
aI56
aI2
aI44
aI36
aI51
aI2
aI32
aI45
aI35
aI2
aI35
aI36
aI34
aI40
aI35
aI36
aI35
aI2
aI54
aI39
aI46
aI2
aI32
aa(lp99
I32
aI43
aI36
aI45
aI51
aI15
aI2
aI46
aI45
aI2
aI51
aI39
aI36
aI2
aI46
aI51
aI39
aI36
aI49
aI2
aI39
aI32
aI45
aI35
aI13
aI2
aI40
aI2
aI32
aI44
aI2
aI54
aI46
aI49
aI42
aI40
aI45
aI38
aI2
aI46
aI45
aI2
aI44
aI56
aI2
aI37
aI46
aI52
aI49
aI51
aI39
aI2
aI34
aI32
aI50
aI36
aI2
aI46
aI37
aI2
aI35
aI56
aI50
aI36
aI45
aI51
aI36
aI49
aI56
aI13
aI2
aI44
aI56
aI2
aI50
aI51
aI46
aI44
aI32
aI34
aI39
aI2
aI37
aI36
aI36
aI43
aI50
aI2
aI43
aI40
aI42
aI36
aI2
aI32
aI2
aI51
aI49
aI36
aI36
aI2
aa(lp100
I50
aI2
aI50
aI36
aI51
aI2
aI37
aI46
aI49
aI2
aI51
aI39
aI36
aI2
aI45
aI36
aI55
aI51
aI2
aI32
aI37
aI51
aI36
aI49
aI45
aI46
aI46
aI45
aI13
aI2
aI32
aI45
aI35
aI2
aI51
aI39
aI36
aI2
aI54
aI39
aI46
aI43
aI36
aI2
aI34
aI46
aI51
aI51
aI46
aI45
aI2
aI37
aI32
aI44
aI40
aI43
aI56
aI2
aI54
aI32
aI50
aI2
aI38
aI46
aI40
aI45
aI38
aI15
aI2
aI10
aI51
aI39
aI36
aI2
aI37
aI43
aI40
aI38
aI39
aI51
aI2
aI43
aI40
aI45
aI36
aI2
aI54
aI32
aI50
aI2
aI36
aI44
aI47
aI51
aI56
aI2
aI51
aI39
aI36
aI2
aa.